target datalayout = "e-m:e-p270:32:32-p271:32:32-p272:64:64-i64:64-i128:128-f80:128-n8:16:32:64-S128"
target triple = "x86_64-pc-linux-gnu"

%struct.hwloc_ps_process = type { i64, [64 x i8], [1024 x i8], ptr, i64, i32, i32, i32, ptr }
%struct.hwloc_ps_thread = type { i64, ptr, i32, [16 x i8] }

@lstopo_misc_output = internal global ptr null, align 8
@.str.87 = private unnamed_addr constant [4 x i8] c"%ld\00", align 1
@.str.88 = private unnamed_addr constant [7 x i8] c"%ld %s\00", align 1
@.str.89 = private unnamed_addr constant [36 x i8] c"name=%s\0Acpuset=%s\0Asubtype=Process\0A\0A\00", align 1
@.str.90 = private unnamed_addr constant [10 x i8] c"%s %li %s\00", align 1
@.str.91 = private unnamed_addr constant [7 x i8] c"%s %li\00", align 1
@.str.92 = private unnamed_addr constant [35 x i8] c"name=%s\0Acpuset=%s\0Asubtype=Thread\0A\0A\00", align 1

; Function Attrs: nounwind uwtable
define internal void @print_process_lstopo_misc(ptr noundef %0, ptr noundef %1) #0 {
  %3 = alloca ptr, align 8
  %4 = alloca ptr, align 8
  %5 = alloca [100 x i8], align 16
  %6 = alloca ptr, align 8
  %7 = alloca i32, align 4
  %8 = alloca [150 x i8], align 16
  store ptr %0, ptr %3, align 8, !tbaa !19
  store ptr %1, ptr %4, align 8, !tbaa !51
  call void @llvm.lifetime.start.p0(i64 100, ptr %5) #9
  call void @llvm.lifetime.start.p0(i64 8, ptr %6) #9
  call void @llvm.lifetime.start.p0(i64 4, ptr %7) #9
  %9 = getelementptr inbounds [100 x i8], ptr %5, i64 0, i64 0
  %10 = load ptr, ptr %4, align 8, !tbaa !51
  %11 = getelementptr inbounds nuw %struct.hwloc_ps_process, ptr %10, i32 0, i32 0
  %12 = load i64, ptr %11, align 8, !tbaa !42
  %13 = call i32 (ptr, i64, ptr, ...) @snprintf(ptr noundef %9, i64 noundef 100, ptr noundef @.str.87, i64 noundef %12) #9
  %14 = load ptr, ptr %4, align 8, !tbaa !51
  %15 = getelementptr inbounds nuw %struct.hwloc_ps_process, ptr %14, i32 0, i32 1
  %16 = getelementptr inbounds [64 x i8], ptr %15, i64 0, i64 0
  %17 = load i8, ptr %16, align 8, !tbaa !40
  %18 = icmp ne i8 %17, 0
  br i1 %18, label %19, label %28

19:                                               ; preds = %2
  %20 = getelementptr inbounds [100 x i8], ptr %5, i64 0, i64 0
  %21 = load ptr, ptr %4, align 8, !tbaa !51
  %22 = getelementptr inbounds nuw %struct.hwloc_ps_process, ptr %21, i32 0, i32 0
  %23 = load i64, ptr %22, align 8, !tbaa !42
  %24 = load ptr, ptr %4, align 8, !tbaa !51
  %25 = getelementptr inbounds nuw %struct.hwloc_ps_process, ptr %24, i32 0, i32 1
  %26 = getelementptr inbounds [64 x i8], ptr %25, i64 0, i64 0
  %27 = call i32 (ptr, i64, ptr, ...) @snprintf(ptr noundef %20, i64 noundef 100, ptr noundef @.str.88, i64 noundef %23, ptr noundef %26) #9
  br label %28

28:                                               ; preds = %19, %2
  %29 = load ptr, ptr %4, align 8, !tbaa !51
  %30 = getelementptr inbounds nuw %struct.hwloc_ps_process, ptr %29, i32 0, i32 3
  %31 = load ptr, ptr %30, align 8, !tbaa !46
  %32 = call i32 @hwloc_bitmap_asprintf(ptr noundef %6, ptr noundef %31)
  %33 = load ptr, ptr @lstopo_misc_output, align 8, !tbaa !9
  %34 = getelementptr inbounds [100 x i8], ptr %5, i64 0, i64 0
  %35 = load ptr, ptr %6, align 8, !tbaa !4
  %36 = call i32 (ptr, ptr, ...) @fprintf(ptr noundef %33, ptr noundef @.str.89, ptr noundef %34, ptr noundef %35) #9
  %37 = load ptr, ptr %6, align 8, !tbaa !4
  call void @free(ptr noundef %37) #9
  %38 = load ptr, ptr %4, align 8, !tbaa !51
  %39 = getelementptr inbounds nuw %struct.hwloc_ps_process, ptr %38, i32 0, i32 6
  %40 = load i32, ptr %39, align 4, !tbaa !47
  %41 = icmp ne i32 %40, 0
  br i1 %41, label %42, label %122

42:                                               ; preds = %28
  store i32 0, ptr %7, align 4, !tbaa !11
  br label %43

43:                                               ; preds = %118, %42
  %44 = load i32, ptr %7, align 4, !tbaa !11
  %45 = load ptr, ptr %4, align 8, !tbaa !51
  %46 = getelementptr inbounds nuw %struct.hwloc_ps_process, ptr %45, i32 0, i32 6
  %47 = load i32, ptr %46, align 4, !tbaa !47
  %48 = icmp ult i32 %44, %47
  br i1 %48, label %49, label %121

49:                                               ; preds = %43
  %50 = load ptr, ptr %4, align 8, !tbaa !51
  %51 = getelementptr inbounds nuw %struct.hwloc_ps_process, ptr %50, i32 0, i32 8
  %52 = load ptr, ptr %51, align 8, !tbaa !49
  %53 = load i32, ptr %7, align 4, !tbaa !11
  %54 = zext i32 %53 to i64
  %55 = getelementptr inbounds nuw %struct.hwloc_ps_thread, ptr %52, i64 %54
  %56 = getelementptr inbounds nuw %struct.hwloc_ps_thread, ptr %55, i32 0, i32 1
  %57 = load ptr, ptr %56, align 8, !tbaa !67
  %58 = icmp ne ptr %57, null
  br i1 %58, label %59, label %117

59:                                               ; preds = %49
  call void @llvm.lifetime.start.p0(i64 150, ptr %8) #9
  %60 = load ptr, ptr %4, align 8, !tbaa !51
  %61 = getelementptr inbounds nuw %struct.hwloc_ps_process, ptr %60, i32 0, i32 8
  %62 = load ptr, ptr %61, align 8, !tbaa !49
  %63 = load i32, ptr %7, align 4, !tbaa !11
  %64 = zext i32 %63 to i64
  %65 = getelementptr inbounds nuw %struct.hwloc_ps_thread, ptr %62, i64 %64
  %66 = getelementptr inbounds nuw %struct.hwloc_ps_thread, ptr %65, i32 0, i32 3
  %67 = getelementptr inbounds [16 x i8], ptr %66, i64 0, i64 0
  %68 = load i8, ptr %67, align 4, !tbaa !40
  %69 = icmp ne i8 %68, 0
  br i1 %69, label %70, label %90

70:                                               ; preds = %59
  %71 = getelementptr inbounds [150 x i8], ptr %8, i64 0, i64 0
  %72 = getelementptr inbounds [100 x i8], ptr %5, i64 0, i64 0
  %73 = load ptr, ptr %4, align 8, !tbaa !51
  %74 = getelementptr inbounds nuw %struct.hwloc_ps_process, ptr %73, i32 0, i32 8
  %75 = load ptr, ptr %74, align 8, !tbaa !49
  %76 = load i32, ptr %7, align 4, !tbaa !11
  %77 = zext i32 %76 to i64
  %78 = getelementptr inbounds nuw %struct.hwloc_ps_thread, ptr %75, i64 %77
  %79 = getelementptr inbounds nuw %struct.hwloc_ps_thread, ptr %78, i32 0, i32 0
  %80 = load i64, ptr %79, align 8, !tbaa !70
  %81 = load ptr, ptr %4, align 8, !tbaa !51
  %82 = getelementptr inbounds nuw %struct.hwloc_ps_process, ptr %81, i32 0, i32 8
  %83 = load ptr, ptr %82, align 8, !tbaa !49
  %84 = load i32, ptr %7, align 4, !tbaa !11
  %85 = zext i32 %84 to i64
  %86 = getelementptr inbounds nuw %struct.hwloc_ps_thread, ptr %83, i64 %85
  %87 = getelementptr inbounds nuw %struct.hwloc_ps_thread, ptr %86, i32 0, i32 3
  %88 = getelementptr inbounds [16 x i8], ptr %87, i64 0, i64 0
  %89 = call i32 (ptr, i64, ptr, ...) @snprintf(ptr noundef %71, i64 noundef 150, ptr noundef @.str.90, ptr noundef %72, i64 noundef %80, ptr noundef %88) #9
  br label %102

90:                                               ; preds = %59
  %91 = getelementptr inbounds [150 x i8], ptr %8, i64 0, i64 0
  %92 = getelementptr inbounds [100 x i8], ptr %5, i64 0, i64 0
  %93 = load ptr, ptr %4, align 8, !tbaa !51
  %94 = getelementptr inbounds nuw %struct.hwloc_ps_process, ptr %93, i32 0, i32 8
  %95 = load ptr, ptr %94, align 8, !tbaa !49
  %96 = load i32, ptr %7, align 4, !tbaa !11
  %97 = zext i32 %96 to i64
  %98 = getelementptr inbounds nuw %struct.hwloc_ps_thread, ptr %95, i64 %97
  %99 = getelementptr inbounds nuw %struct.hwloc_ps_thread, ptr %98, i32 0, i32 0
  %100 = load i64, ptr %99, align 8, !tbaa !70
  %101 = call i32 (ptr, i64, ptr, ...) @snprintf(ptr noundef %91, i64 noundef 150, ptr noundef @.str.91, ptr noundef %92, i64 noundef %100) #9
  br label %102

102:                                              ; preds = %90, %70
  %103 = load ptr, ptr %4, align 8, !tbaa !51
  %104 = getelementptr inbounds nuw %struct.hwloc_ps_process, ptr %103, i32 0, i32 8
  %105 = load ptr, ptr %104, align 8, !tbaa !49
  %106 = load i32, ptr %7, align 4, !tbaa !11
  %107 = zext i32 %106 to i64
  %108 = getelementptr inbounds nuw %struct.hwloc_ps_thread, ptr %105, i64 %107
  %109 = getelementptr inbounds nuw %struct.hwloc_ps_thread, ptr %108, i32 0, i32 1
  %110 = load ptr, ptr %109, align 8, !tbaa !67
  %111 = call i32 @hwloc_bitmap_asprintf(ptr noundef %6, ptr noundef %110)
  %112 = load ptr, ptr @lstopo_misc_output, align 8, !tbaa !9
  %113 = getelementptr inbounds [150 x i8], ptr %8, i64 0, i64 0
  %114 = load ptr, ptr %6, align 8, !tbaa !4
  %115 = call i32 (ptr, ptr, ...) @fprintf(ptr noundef %112, ptr noundef @.str.92, ptr noundef %113, ptr noundef %114) #9
  %116 = load ptr, ptr %6, align 8, !tbaa !4
  call void @free(ptr noundef %116) #9
  call void @llvm.lifetime.end.p0(i64 150, ptr %8) #9
  br label %117

117:                                              ; preds = %102, %49
  br label %118

118:                                              ; preds = %117
  %119 = load i32, ptr %7, align 4, !tbaa !11
  %120 = add i32 %119, 1
  store i32 %120, ptr %7, align 4, !tbaa !11
  br label %43, !llvm.loop !72

121:                                              ; preds = %43
  br label %122

122:                                              ; preds = %121, %28
  call void @llvm.lifetime.end.p0(i64 4, ptr %7) #9
  call void @llvm.lifetime.end.p0(i64 8, ptr %6) #9
  call void @llvm.lifetime.end.p0(i64 100, ptr %5) #9
  ret void
}